target datalayout = "e-m:e-p270:32:32-p271:32:32-p272:64:64-i64:64-i128:128-f80:128-n8:16:32:64-S128"
target triple = "x86_64-unknown-linux-gnu"

%"class.node::inspector::protocol::FundamentalValue" = type { %"class.node::inspector::protocol::Value.base", %union.anon.18 }
%"class.node::inspector::protocol::Value.base" = type <{ %"class.node::inspector::protocol::Serializable", i32 }>
%"class.node::inspector::protocol::Serializable" = type { ptr }
%union.anon.18 = type { double }
%"class.node::inspector::protocol::Value" = type <{ %"class.node::inspector::protocol::Serializable", i32, [4 x i8] }>

; Function Attrs: mustprogress nounwind uwtable
define linkonce_odr dso_local noundef i32 @_ZNK4node9inspector8protocol5Value4typeEv(ptr noundef nonnull align 8 dereferenceable(12) %this) #0 comdat align 2 {
entry:
  %this.addr = alloca ptr, align 8
  store ptr %this, ptr %this.addr, align 8
  %this1 = load ptr, ptr %this.addr, align 8
  %m_type = getelementptr inbounds %"class.node::inspector::protocol::Value", ptr %this1, i32 0, i32 1
  %0 = load i32, ptr %m_type, align 8
  ret i32 %0
}

; Function Attrs: mustprogress nounwind uwtable
define dso_local noundef zeroext i1 @_ZNK4node9inspector8protocol16FundamentalValue9asBooleanEPb(ptr noundef nonnull align 8 dereferenceable(24) %this, ptr noundef %output) unnamed_addr #0 align 2 {
entry:
  %retval = alloca i1, align 1
  %this.addr = alloca ptr, align 8
  %output.addr = alloca ptr, align 8
  store ptr %this, ptr %this.addr, align 8
  store ptr %output, ptr %output.addr, align 8
  %this1 = load ptr, ptr %this.addr, align 8
  %call = call noundef i32 @_ZNK4node9inspector8protocol5Value4typeEv(ptr noundef nonnull align 8 dereferenceable(12) %this1)
  %cmp = icmp ne i32 %call, 1
  br i1 %cmp, label %if.then, label %if.end

if.then:                                          ; preds = %entry
  store i1 false, ptr %retval, align 1
  br label %return

if.end:                                           ; preds = %entry
  %0 = getelementptr inbounds %"class.node::inspector::protocol::FundamentalValue", ptr %this1, i32 0, i32 1
  %1 = load i8, ptr %0, align 8
  %tobool = trunc i8 %1 to i1
  %2 = load ptr, ptr %output.addr, align 8
  %frombool = zext i1 %tobool to i8
  store i8 %frombool, ptr %2, align 1
  store i1 true, ptr %retval, align 1
  br label %return

return:                                           ; preds = %if.end, %if.then
  %3 = load i1, ptr %retval, align 1
  ret i1 %3
}