; Function Attrs: mustprogress nofree norecurse nosync nounwind willreturn memory(argmem: readwrite) uwtable
define dso_local noundef zeroext i1 @_ZNK4node9inspector8protocol16FundamentalValue9asBooleanEPb(ptr nocapture noundef nonnull readonly align 8 dereferenceable(24) %this, ptr nocapture noundef writeonly %output) unnamed_addr #8 align 2 {
entry:
  %m_type.i = getelementptr inbounds i8, ptr %this, i64 8
  %0 = load i32, ptr %m_type.i, align 8
  %cmp.not = icmp eq i32 %0, 1
  br i1 %cmp.not, label %if.end, label %return

if.end:                                           ; preds = %entry
  %1 = getelementptr inbounds i8, ptr %this, i64 16
  %2 = load i8, ptr %1, align 8
  %3 = and i8 %2, 1
  store i8 %3, ptr %output, align 1
  br label %return

return:                                           ; preds = %entry, %if.end
  ret i1 %cmp.not
}